target datalayout = "e-m:e-p270:32:32-p271:32:32-p272:64:64-i64:64-i128:128-f80:128-n8:16:32:64-S128"
target triple = "x86_64-pc-linux-gnu"

%class.Sample = type { ptr, ptr, ptr, ptr, ptr, i8, float, float, float, float, float, float, float, float, float, float, float, float, float, i32, i8, i8, i8, ptr, [9 x ptr], ptr, %class.SampleDebugDraw }
%class.SampleDebugDraw = type { %class.DebugDrawGL }
%class.DebugDrawGL = type { %struct.duDebugDraw }
%struct.duDebugDraw = type { ptr }
%struct.dtTileCacheParams = type { [3 x float], float, float, i32, i32, float, float, float, float, i32, i32 }
%class.Sample_TempObstacles = type <{ %class.Sample, i8, [7 x i8], ptr, ptr, ptr, ptr, float, i32, i32, i32, i32, i32, i32, i32, float, [4 x i8] }>
%struct.TileCacheSetHeader = type { i32, i32, i32, %struct.dtNavMeshParams, %struct.dtTileCacheParams }
%struct.dtNavMeshParams = type { [3 x float], float, float, i32, i32 }
%struct.TileCacheTileHeader = type { i32, i32 }

@.str.53 = private unnamed_addr constant [3 x i8] c"rb\00", align 1

; Function Attrs: mustprogress nounwind uwtable
define linkonce_odr dso_local noundef zeroext i1 @_Z14dtStatusFailedj(i32 noundef %0) #0 comdat {
  %2 = alloca i32, align 4
  store i32 %0, ptr %2, align 4
  %3 = load i32, ptr %2, align 4
  %4 = and i32 %3, -2147483648
  %5 = icmp ne i32 %4, 0
  ret i1 %5
}

; Function Attrs: mustprogress uwtable
define dso_local void @_ZN20Sample_TempObstacles7loadAllEPKc(ptr noundef nonnull align 8 dereferenceable(276) %0, ptr noundef %1) #5 align 2 {
  %3 = alloca ptr, align 8
  %4 = alloca ptr, align 8
  %5 = alloca ptr, align 8
  %6 = alloca %struct.TileCacheSetHeader, align 4
  %7 = alloca i64, align 8
  %8 = alloca i32, align 4
  %9 = alloca i32, align 4
  %10 = alloca %struct.TileCacheTileHeader, align 4
  %11 = alloca i64, align 8
  %12 = alloca ptr, align 8
  %13 = alloca i64, align 8
  %14 = alloca i32, align 4
  %15 = alloca i32, align 4
  store ptr %0, ptr %3, align 8
  store ptr %1, ptr %4, align 8
  %16 = load ptr, ptr %3, align 8
  %17 = load ptr, ptr %4, align 8
  %18 = call noalias ptr @fopen(ptr noundef %17, ptr noundef @.str.53)
  store ptr %18, ptr %5, align 8
  %19 = load ptr, ptr %5, align 8
  %20 = icmp ne ptr %19, null
  br i1 %20, label %22, label %21

21:                                               ; preds = %2
  br label %164

22:                                               ; preds = %2
  %23 = load ptr, ptr %5, align 8
  %24 = call i64 @fread(ptr noundef %6, i64 noundef 92, i64 noundef 1, ptr noundef %23)
  store i64 %24, ptr %7, align 8
  %25 = load i64, ptr %7, align 8
  %26 = icmp ne i64 %25, 1
  br i1 %26, label %27, label %30

27:                                               ; preds = %22
  %28 = load ptr, ptr %5, align 8
  %29 = call i32 @fclose(ptr noundef %28)
  br label %164

30:                                               ; preds = %22
  %31 = getelementptr inbounds %struct.TileCacheSetHeader, ptr %6, i32 0, i32 0
  %32 = load i32, ptr %31, align 4
  %33 = icmp ne i32 %32, 1414743380
  br i1 %33, label %34, label %37

34:                                               ; preds = %30
  %35 = load ptr, ptr %5, align 8
  %36 = call i32 @fclose(ptr noundef %35)
  br label %164

37:                                               ; preds = %30
  %38 = getelementptr inbounds %struct.TileCacheSetHeader, ptr %6, i32 0, i32 1
  %39 = load i32, ptr %38, align 4
  %40 = icmp ne i32 %39, 1
  br i1 %40, label %41, label %44

41:                                               ; preds = %37
  %42 = load ptr, ptr %5, align 8
  %43 = call i32 @fclose(ptr noundef %42)
  br label %164

44:                                               ; preds = %37
  %45 = call noundef ptr @_Z14dtAllocNavMeshv()
  %46 = getelementptr inbounds %class.Sample, ptr %16, i32 0, i32 2
  store ptr %45, ptr %46, align 8
  %47 = getelementptr inbounds %class.Sample, ptr %16, i32 0, i32 2
  %48 = load ptr, ptr %47, align 8
  %49 = icmp ne ptr %48, null
  br i1 %49, label %53, label %50

50:                                               ; preds = %44
  %51 = load ptr, ptr %5, align 8
  %52 = call i32 @fclose(ptr noundef %51)
  br label %164

53:                                               ; preds = %44
  %54 = getelementptr inbounds %class.Sample, ptr %16, i32 0, i32 2
  %55 = load ptr, ptr %54, align 8
  %56 = getelementptr inbounds %struct.TileCacheSetHeader, ptr %6, i32 0, i32 3
  %57 = call noundef i32 @_ZN9dtNavMesh4initEPK15dtNavMeshParams(ptr noundef nonnull align 8 dereferenceable(100) %55, ptr noundef %56)
  store i32 %57, ptr %8, align 4
  %58 = load i32, ptr %8, align 4
  %59 = call noundef zeroext i1 @_Z14dtStatusFailedj(i32 noundef %58)
  br i1 %59, label %60, label %63

60:                                               ; preds = %53
  %61 = load ptr, ptr %5, align 8
  %62 = call i32 @fclose(ptr noundef %61)
  br label %164

63:                                               ; preds = %53
  %64 = call noundef ptr @_Z16dtAllocTileCachev()
  %65 = getelementptr inbounds %class.Sample_TempObstacles, ptr %16, i32 0, i32 6
  store ptr %64, ptr %65, align 8
  %66 = getelementptr inbounds %class.Sample_TempObstacles, ptr %16, i32 0, i32 6
  %67 = load ptr, ptr %66, align 8
  %68 = icmp ne ptr %67, null
  br i1 %68, label %72, label %69

69:                                               ; preds = %63
  %70 = load ptr, ptr %5, align 8
  %71 = call i32 @fclose(ptr noundef %70)
  br label %164

72:                                               ; preds = %63
  %73 = getelementptr inbounds %class.Sample_TempObstacles, ptr %16, i32 0, i32 6
  %74 = load ptr, ptr %73, align 8
  %75 = getelementptr inbounds %struct.TileCacheSetHeader, ptr %6, i32 0, i32 4
  %76 = getelementptr inbounds %class.Sample_TempObstacles, ptr %16, i32 0, i32 3
  %77 = load ptr, ptr %76, align 8
  %78 = getelementptr inbounds %class.Sample_TempObstacles, ptr %16, i32 0, i32 4
  %79 = load ptr, ptr %78, align 8
  %80 = getelementptr inbounds %class.Sample_TempObstacles, ptr %16, i32 0, i32 5
  %81 = load ptr, ptr %80, align 8
  %82 = call noundef i32 @_ZN11dtTileCache4initEPK17dtTileCacheParamsP16dtTileCacheAllocP21dtTileCacheCompressorP22dtTileCacheMeshProcess(ptr noundef nonnull align 8 dereferenceable(912) %74, ptr noundef %75, ptr noundef %77, ptr noundef %79, ptr noundef %81)
  store i32 %82, ptr %8, align 4
  %83 = load i32, ptr %8, align 4
  %84 = call noundef zeroext i1 @_Z14dtStatusFailedj(i32 noundef %83)
  br i1 %84, label %85, label %88

85:                                               ; preds = %72
  %86 = load ptr, ptr %5, align 8
  %87 = call i32 @fclose(ptr noundef %86)
  br label %164

88:                                               ; preds = %72
  store i32 0, ptr %9, align 4
  br label %89

89:                                               ; preds = %158, %88
  %90 = load i32, ptr %9, align 4
  %91 = getelementptr inbounds %struct.TileCacheSetHeader, ptr %6, i32 0, i32 2
  %92 = load i32, ptr %91, align 4
  %93 = icmp slt i32 %90, %92
  br i1 %93, label %94, label %161

94:                                               ; preds = %89
  %95 = load ptr, ptr %5, align 8
  %96 = call i64 @fread(ptr noundef %10, i64 noundef 8, i64 noundef 1, ptr noundef %95)
  store i64 %96, ptr %11, align 8
  %97 = load i64, ptr %11, align 8
  %98 = icmp ne i64 %97, 1
  br i1 %98, label %99, label %102

99:                                               ; preds = %94
  %100 = load ptr, ptr %5, align 8
  %101 = call i32 @fclose(ptr noundef %100)
  br label %164

102:                                              ; preds = %94
  %103 = getelementptr inbounds %struct.TileCacheTileHeader, ptr %10, i32 0, i32 0
  %104 = load i32, ptr %103, align 4
  %105 = icmp ne i32 %104, 0
  br i1 %105, label %106, label %110

106:                                              ; preds = %102
  %107 = getelementptr inbounds %struct.TileCacheTileHeader, ptr %10, i32 0, i32 1
  %108 = load i32, ptr %107, align 4
  %109 = icmp ne i32 %108, 0
  br i1 %109, label %111, label %110

110:                                              ; preds = %106, %102
  br label %161

111:                                              ; preds = %106
  %112 = getelementptr inbounds %struct.TileCacheTileHeader, ptr %10, i32 0, i32 1
  %113 = load i32, ptr %112, align 4
  %114 = sext i32 %113 to i64
  %115 = call noundef ptr @_Z7dtAllocm11dtAllocHint(i64 noundef %114, i32 noundef 0)
  store ptr %115, ptr %12, align 8
  %116 = load ptr, ptr %12, align 8
  %117 = icmp ne ptr %116, null
  br i1 %117, label %119, label %118

118:                                              ; preds = %111
  br label %161

119:                                              ; preds = %111
  %120 = load ptr, ptr %12, align 8
  %121 = getelementptr inbounds %struct.TileCacheTileHeader, ptr %10, i32 0, i32 1
  %122 = load i32, ptr %121, align 4
  %123 = sext i32 %122 to i64
  call void @llvm.memset.p0.i64(ptr align 1 %120, i8 0, i64 %123, i1 false)
  %124 = load ptr, ptr %12, align 8
  %125 = getelementptr inbounds %struct.TileCacheTileHeader, ptr %10, i32 0, i32 1
  %126 = load i32, ptr %125, align 4
  %127 = sext i32 %126 to i64
  %128 = load ptr, ptr %5, align 8
  %129 = call i64 @fread(ptr noundef %124, i64 noundef %127, i64 noundef 1, ptr noundef %128)
  store i64 %129, ptr %13, align 8
  %130 = load i64, ptr %13, align 8
  %131 = icmp ne i64 %130, 1
  br i1 %131, label %132, label %136

132:                                              ; preds = %119
  %133 = load ptr, ptr %12, align 8
  call void @_Z6dtFreePv(ptr noundef %133)
  %134 = load ptr, ptr %5, align 8
  %135 = call i32 @fclose(ptr noundef %134)
  br label %164

136:                                              ; preds = %119
  store i32 0, ptr %14, align 4
  %137 = getelementptr inbounds %class.Sample_TempObstacles, ptr %16, i32 0, i32 6
  %138 = load ptr, ptr %137, align 8
  %139 = load ptr, ptr %12, align 8
  %140 = getelementptr inbounds %struct.TileCacheTileHeader, ptr %10, i32 0, i32 1
  %141 = load i32, ptr %140, align 4
  %142 = call noundef i32 @_ZN11dtTileCache7addTileEPhihPj(ptr noundef nonnull align 8 dereferenceable(912) %138, ptr noundef %139, i32 noundef %141, i8 noundef zeroext 1, ptr noundef %14)
  store i32 %142, ptr %15, align 4
  %143 = load i32, ptr %15, align 4
  %144 = call noundef zeroext i1 @_Z14dtStatusFailedj(i32 noundef %143)
  br i1 %144, label %145, label %147

145:                                              ; preds = %136
  %146 = load ptr, ptr %12, align 8
  call void @_Z6dtFreePv(ptr noundef %146)
  br label %147

147:                                              ; preds = %145, %136
  %148 = load i32, ptr %14, align 4
  %149 = icmp ne i32 %148, 0
  br i1 %149, label %150, label %157

150:                                              ; preds = %147
  %151 = getelementptr inbounds %class.Sample_TempObstacles, ptr %16, i32 0, i32 6
  %152 = load ptr, ptr %151, align 8
  %153 = load i32, ptr %14, align 4
  %154 = getelementptr inbounds %class.Sample, ptr %16, i32 0, i32 2
  %155 = load ptr, ptr %154, align 8
  %156 = call noundef i32 @_ZN11dtTileCache16buildNavMeshTileEjP9dtNavMesh(ptr noundef nonnull align 8 dereferenceable(912) %152, i32 noundef %153, ptr noundef %155)
  br label %157

157:                                              ; preds = %150, %147
  br label %158

158:                                              ; preds = %157
  %159 = load i32, ptr %9, align 4
  %160 = add nsw i32 %159, 1
  store i32 %160, ptr %9, align 4
  br label %89, !llvm.loop !20

161:                                              ; preds = %118, %110, %89
  %162 = load ptr, ptr %5, align 8
  %163 = call i32 @fclose(ptr noundef %162)
  br label %164

164:                                              ; preds = %161, %132, %99, %85, %69, %60, %50, %41, %34, %27, %21
  ret void
}