; Function Attrs: mustprogress uwtable
define dso_local void @_ZN20Sample_TempObstacles7loadAllEPKc(ptr nocapture noundef nonnull align 8 dereferenceable(276) %0, ptr nocapture noundef readonly %1) local_unnamed_addr #5 align 2 {
  %3 = alloca %struct.TileCacheSetHeader, align 4
  %4 = alloca %struct.TileCacheTileHeader, align 4
  %5 = alloca i32, align 4
  %6 = tail call noalias ptr @fopen(ptr noundef %1, ptr noundef nonnull @.str.53)
  %.not = icmp eq ptr %6, null
  br i1 %.not, label %84, label %7

7:                                                ; preds = %2
  %8 = call i64 @fread(ptr noundef nonnull %3, i64 noundef 92, i64 noundef 1, ptr noundef nonnull %6)
  %.not37 = icmp eq i64 %8, 1
  br i1 %.not37, label %11, label %9

9:                                                ; preds = %7
  %10 = tail call i32 @fclose(ptr noundef nonnull %6)
  br label %84

11:                                               ; preds = %7
  %12 = load i32, ptr %3, align 4
  %.not38 = icmp eq i32 %12, 1414743380
  br i1 %.not38, label %15, label %13

13:                                               ; preds = %11
  %14 = tail call i32 @fclose(ptr noundef nonnull %6)
  br label %84

15:                                               ; preds = %11
  %16 = getelementptr inbounds i8, ptr %3, i64 4
  %17 = load i32, ptr %16, align 4
  %.not39 = icmp eq i32 %17, 1
  br i1 %.not39, label %20, label %18

18:                                               ; preds = %15
  %19 = tail call i32 @fclose(ptr noundef nonnull %6)
  br label %84

20:                                               ; preds = %15
  %21 = tail call noundef ptr @_Z14dtAllocNavMeshv()
  %22 = getelementptr inbounds i8, ptr %0, i64 16
  store ptr %21, ptr %22, align 8
  %.not40 = icmp eq ptr %21, null
  br i1 %.not40, label %23, label %25

23:                                               ; preds = %20
  %24 = tail call i32 @fclose(ptr noundef nonnull %6)
  br label %84

25:                                               ; preds = %20
  %26 = getelementptr inbounds i8, ptr %3, i64 12
  %27 = call noundef i32 @_ZN9dtNavMesh4initEPK15dtNavMeshParams(ptr noundef nonnull align 8 dereferenceable(100) %21, ptr noundef nonnull %26)
  %28 = icmp slt i32 %27, 0
  br i1 %28, label %29, label %31

29:                                               ; preds = %25
  %30 = call i32 @fclose(ptr noundef nonnull %6)
  br label %84

31:                                               ; preds = %25
  %32 = call noundef ptr @_Z16dtAllocTileCachev()
  %33 = getelementptr inbounds i8, ptr %0, i64 232
  store ptr %32, ptr %33, align 8
  %.not41 = icmp eq ptr %32, null
  br i1 %.not41, label %34, label %36

34:                                               ; preds = %31
  %35 = call i32 @fclose(ptr noundef nonnull %6)
  br label %84

36:                                               ; preds = %31
  %37 = getelementptr inbounds i8, ptr %3, i64 40
  %38 = getelementptr inbounds i8, ptr %0, i64 208
  %39 = load ptr, ptr %38, align 8
  %40 = getelementptr inbounds i8, ptr %0, i64 216
  %41 = load ptr, ptr %40, align 8
  %42 = getelementptr inbounds i8, ptr %0, i64 224
  %43 = load ptr, ptr %42, align 8
  %44 = call noundef i32 @_ZN11dtTileCache4initEPK17dtTileCacheParamsP16dtTileCacheAllocP21dtTileCacheCompressorP22dtTileCacheMeshProcess(ptr noundef nonnull align 8 dereferenceable(912) %32, ptr noundef nonnull %37, ptr noundef %39, ptr noundef %41, ptr noundef %43)
  %45 = icmp slt i32 %44, 0
  br i1 %45, label %50, label %.preheader

.preheader:                                       ; preds = %36
  %46 = getelementptr inbounds i8, ptr %3, i64 8
  %47 = load i32, ptr %46, align 4
  %48 = icmp sgt i32 %47, 0
  br i1 %48, label %.lr.ph, label %._crit_edge

.lr.ph:                                           ; preds = %.preheader
  %49 = getelementptr inbounds i8, ptr %4, i64 4
  br label %52

50:                                               ; preds = %36
  %51 = call i32 @fclose(ptr noundef nonnull %6)
  br label %84

52:                                               ; preds = %.lr.ph, %79
  %.046 = phi i32 [ 0, %.lr.ph ], [ %80, %79 ]
  %53 = call i64 @fread(ptr noundef nonnull %4, i64 noundef 8, i64 noundef 1, ptr noundef nonnull %6)
  %.not42 = icmp eq i64 %53, 1
  br i1 %.not42, label %56, label %54

54:                                               ; preds = %52
  %55 = call i32 @fclose(ptr noundef nonnull %6)
  br label %84

56:                                               ; preds = %52
  %57 = load i32, ptr %4, align 4
  %58 = icmp ne i32 %57, 0
  %59 = load i32, ptr %49, align 4
  %60 = icmp ne i32 %59, 0
  %or.cond = select i1 %58, i1 %60, i1 false
  br i1 %or.cond, label %61, label %._crit_edge

61:                                               ; preds = %56
  %62 = sext i32 %59 to i64
  %63 = call noundef ptr @_Z7dtAllocm11dtAllocHint(i64 noundef %62, i32 noundef 0)
  %.not43 = icmp eq ptr %63, null
  br i1 %.not43, label %._crit_edge, label %64

64:                                               ; preds = %61
  call void @llvm.memset.p0.i64(ptr nonnull align 1 %63, i8 0, i64 %62, i1 false)
  %65 = call i64 @fread(ptr noundef nonnull %63, i64 noundef %62, i64 noundef 1, ptr noundef nonnull %6)
  %.not44 = icmp eq i64 %65, 1
  br i1 %.not44, label %68, label %66

66:                                               ; preds = %64
  call void @_Z6dtFreePv(ptr noundef nonnull %63)
  %67 = call i32 @fclose(ptr noundef nonnull %6)
  br label %84

68:                                               ; preds = %64
  store i32 0, ptr %5, align 4
  %69 = load ptr, ptr %33, align 8
  %70 = call noundef i32 @_ZN11dtTileCache7addTileEPhihPj(ptr noundef nonnull align 8 dereferenceable(912) %69, ptr noundef nonnull %63, i32 noundef %59, i8 noundef zeroext 1, ptr noundef nonnull %5)
  %71 = icmp slt i32 %70, 0
  br i1 %71, label %72, label %73

72:                                               ; preds = %68
  call void @_Z6dtFreePv(ptr noundef nonnull %63)
  br label %73

73:                                               ; preds = %72, %68
  %74 = load i32, ptr %5, align 4
  %.not45 = icmp eq i32 %74, 0
  br i1 %.not45, label %79, label %75

75:                                               ; preds = %73
  %76 = load ptr, ptr %33, align 8
  %77 = load ptr, ptr %22, align 8
  %78 = call noundef i32 @_ZN11dtTileCache16buildNavMeshTileEjP9dtNavMesh(ptr noundef nonnull align 8 dereferenceable(912) %76, i32 noundef %74, ptr noundef %77)
  br label %79

79:                                               ; preds = %73, %75
  %80 = add nuw nsw i32 %.046, 1
  %81 = load i32, ptr %46, align 4
  %82 = icmp slt i32 %80, %81
  br i1 %82, label %52, label %._crit_edge, !llvm.loop !20

._crit_edge:                                      ; preds = %79, %56, %61, %.preheader
  %83 = call i32 @fclose(ptr noundef nonnull %6)
  br label %84

84:                                               ; preds = %2, %._crit_edge, %66, %54, %50, %34, %29, %23, %18, %13, %9
  ret void
}